target datalayout = "e-m:e-p270:32:32-p271:32:32-p272:64:64-i64:64-i128:128-f80:128-n8:16:32:64-S128"
target triple = "x86_64-pc-linux-gnu"

%struct.IDAMemRec = type { double, ptr, ptr, i32, double, double, ptr, i32, ptr, ptr, i32, ptr, ptr, i32, i32, double, double, ptr, i32, i32, i32, ptr, ptr, i32, ptr, ptr, ptr, i32, double, i32, i32, double, ptr, ptr, i32, ptr, ptr, i32, i32, i32, double, ptr, ptr, [6 x ptr], [6 x double], [6 x double], [6 x double], [6 x double], [6 x double], ptr, ptr, ptr, ptr, ptr, ptr, ptr, ptr, ptr, ptr, ptr, ptr, ptr, ptr, ptr, [6 x ptr], ptr, ptr, ptr, ptr, [6 x ptr], ptr, ptr, ptr, ptr, ptr, ptr, ptr, ptr, ptr, ptr, ptr, ptr, ptr, ptr, [6 x ptr], ptr, ptr, ptr, ptr, ptr, double, ptr, ptr, i32, i32, i32, i32, i32, i32, i32, double, double, double, i32, double, i32, i32, i32, i32, double, double, double, double, double, double, double, double, double, double, double, double, double, double, i32, i32, i32, i32, i32, i64, double, i32, i64, i64, i64, i64, i64, i64, i64, i64, i64, i64, i64, i64, i64, i64, i64, i64, i64, i64, i64, i64, i64, i64, i64, i64, ptr, ptr, ptr, i32, i32, i32, i32, i32, i32, i32, i32, i32, i32, i32, i32, i32, ptr, ptr, ptr, ptr, ptr, ptr, i32, i32, i32, i32, i32, i32, double, double, double, ptr, i32, ptr, ptr, double, double, double, ptr, ptr, ptr, double, double, i32, i32, i64, ptr, i32, i32, ptr, i32 }
%struct.IDASpilsMemRec = type { i32, i32, double, i32, i32, double, double, double, i64, i64, i64, i64, i64, i64, i64, i64, i64, i64, i64, i64, ptr, ptr, ptr, ptr, ptr, ptr, ptr, i64, ptr, ptr, ptr, ptr, i32, ptr, ptr }
%struct.IDAadjMemRec = type { double, double, i32, i32, double, ptr, i32, ptr, i32, ptr, ptr, i32, i64, ptr, i64, i32, ptr, ptr, ptr, ptr, i32, i32, i32, i32, i32, [6 x ptr], [6 x ptr], [6 x double], ptr, ptr, ptr, ptr, i64 }
%struct.IDABMemRec = type { i32, double, ptr, i32, i32, ptr, ptr, ptr, ptr, ptr, ptr, ptr, ptr, ptr, double, ptr, ptr, ptr }
%struct.IDASpilsMemRecB = type { ptr, ptr, ptr, ptr, ptr, ptr, ptr }

@.str = private unnamed_addr constant [10 x i8] c"IDASSPILS\00", align 1
@.str.2 = private unnamed_addr constant [27 x i8] c"Integrator memory is NULL.\00", align 1
@.str.3 = private unnamed_addr constant [30 x i8] c"Linear solver memory is NULL.\00", align 1
@.str.14 = private unnamed_addr constant [25 x i8] c"IDASpilsSetJacTimesVecFn\00", align 1
@.str.31 = private unnamed_addr constant [51 x i8] c"Illegal attempt to call before calling IDAAdjInit.\00", align 1
@.str.32 = private unnamed_addr constant [25 x i8] c"Illegal value for which.\00", align 1
@.str.38 = private unnamed_addr constant [59 x i8] c"Linear solver memory is NULL for the backward integration.\00", align 1
@.str.41 = private unnamed_addr constant [27 x i8] c"IDASpilsSetJacTimesVecFnBS\00", align 1

; Function Attrs: nounwind uwtable
define i32 @IDASpilsSetJacTimesVecFn(ptr noundef %0, ptr noundef %1) #0 {
  %3 = alloca i32, align 4
  %4 = alloca ptr, align 8
  %5 = alloca ptr, align 8
  %6 = alloca ptr, align 8
  %7 = alloca ptr, align 8
  %8 = alloca i32, align 4
  store ptr %0, ptr %4, align 8, !tbaa !3
  store ptr %1, ptr %5, align 8, !tbaa !3
  call void @llvm.lifetime.start.p0(i64 8, ptr %6) #5
  call void @llvm.lifetime.start.p0(i64 8, ptr %7) #5
  %9 = load ptr, ptr %4, align 8, !tbaa !3
  %10 = icmp eq ptr %9, null
  br i1 %10, label %11, label %12

11:                                               ; preds = %2
  call void (ptr, i32, ptr, ptr, ptr, ...) @IDAProcessError(ptr noundef null, i32 noundef -1, ptr noundef @.str, ptr noundef @.str.14, ptr noundef @.str.2)
  store i32 -1, ptr %3, align 4
  store i32 1, ptr %8, align 4
  br label %36

12:                                               ; preds = %2
  %13 = load ptr, ptr %4, align 8, !tbaa !3
  store ptr %13, ptr %6, align 8, !tbaa !9
  %14 = load ptr, ptr %6, align 8, !tbaa !9
  %15 = getelementptr inbounds nuw %struct.IDAMemRec, ptr %14, i32 0, i32 176
  %16 = load ptr, ptr %15, align 8, !tbaa !11
  %17 = icmp eq ptr %16, null
  br i1 %17, label %18, label %20

18:                                               ; preds = %12
  %19 = load ptr, ptr %6, align 8, !tbaa !9
  call void (ptr, i32, ptr, ptr, ptr, ...) @IDAProcessError(ptr noundef %19, i32 noundef -2, ptr noundef @.str, ptr noundef @.str.14, ptr noundef @.str.3)
  store i32 -2, ptr %3, align 4
  store i32 1, ptr %8, align 4
  br label %36

20:                                               ; preds = %12
  %21 = load ptr, ptr %6, align 8, !tbaa !9
  %22 = getelementptr inbounds nuw %struct.IDAMemRec, ptr %21, i32 0, i32 176
  %23 = load ptr, ptr %22, align 8, !tbaa !11
  store ptr %23, ptr %7, align 8, !tbaa !21
  %24 = load ptr, ptr %5, align 8, !tbaa !3
  %25 = icmp ne ptr %24, null
  br i1 %25, label %26, label %32

26:                                               ; preds = %20
  %27 = load ptr, ptr %7, align 8, !tbaa !21
  %28 = getelementptr inbounds nuw %struct.IDASpilsMemRec, ptr %27, i32 0, i32 32
  store i32 0, ptr %28, align 8, !tbaa !33
  %29 = load ptr, ptr %5, align 8, !tbaa !3
  %30 = load ptr, ptr %7, align 8, !tbaa !21
  %31 = getelementptr inbounds nuw %struct.IDASpilsMemRec, ptr %30, i32 0, i32 33
  store ptr %29, ptr %31, align 8, !tbaa !34
  br label %35

32:                                               ; preds = %20
  %33 = load ptr, ptr %7, align 8, !tbaa !21
  %34 = getelementptr inbounds nuw %struct.IDASpilsMemRec, ptr %33, i32 0, i32 32
  store i32 1, ptr %34, align 8, !tbaa !33
  br label %35

35:                                               ; preds = %32, %26
  store i32 0, ptr %3, align 4
  store i32 1, ptr %8, align 4
  br label %36

36:                                               ; preds = %35, %18, %11
  call void @llvm.lifetime.end.p0(i64 8, ptr %7) #5
  call void @llvm.lifetime.end.p0(i64 8, ptr %6) #5
  %37 = load i32, ptr %3, align 4
  ret i32 %37
}

; Function Attrs: nounwind uwtable
define i32 @IDASpilsSetJacTimesVecFnBS(ptr noundef %0, i32 noundef %1, ptr noundef %2) #0 {
  %4 = alloca i32, align 4
  %5 = alloca ptr, align 8
  %6 = alloca i32, align 4
  %7 = alloca ptr, align 8
  %8 = alloca ptr, align 8
  %9 = alloca ptr, align 8
  %10 = alloca ptr, align 8
  %11 = alloca ptr, align 8
  %12 = alloca ptr, align 8
  %13 = alloca i32, align 4
  %14 = alloca i32, align 4
  store ptr %0, ptr %5, align 8, !tbaa !3
  store i32 %1, ptr %6, align 4, !tbaa !7
  store ptr %2, ptr %7, align 8, !tbaa !3
  call void @llvm.lifetime.start.p0(i64 8, ptr %8) #5
  call void @llvm.lifetime.start.p0(i64 8, ptr %9) #5
  call void @llvm.lifetime.start.p0(i64 8, ptr %10) #5
  call void @llvm.lifetime.start.p0(i64 8, ptr %11) #5
  call void @llvm.lifetime.start.p0(i64 8, ptr %12) #5
  call void @llvm.lifetime.start.p0(i64 4, ptr %13) #5
  %15 = load ptr, ptr %5, align 8, !tbaa !3
  %16 = icmp eq ptr %15, null
  br i1 %16, label %17, label %18

17:                                               ; preds = %3
  call void (ptr, i32, ptr, ptr, ptr, ...) @IDAProcessError(ptr noundef null, i32 noundef -1, ptr noundef @.str, ptr noundef @.str.41, ptr noundef @.str.2)
  store i32 -1, ptr %4, align 4
  store i32 1, ptr %14, align 4
  br label %82

18:                                               ; preds = %3
  %19 = load ptr, ptr %5, align 8, !tbaa !3
  store ptr %19, ptr %9, align 8, !tbaa !9
  %20 = load ptr, ptr %9, align 8, !tbaa !9
  %21 = getelementptr inbounds nuw %struct.IDAMemRec, ptr %20, i32 0, i32 205
  %22 = load i32, ptr %21, align 8, !tbaa !66
  %23 = icmp eq i32 %22, 0
  br i1 %23, label %24, label %26

24:                                               ; preds = %18
  %25 = load ptr, ptr %9, align 8, !tbaa !9
  call void (ptr, i32, ptr, ptr, ptr, ...) @IDAProcessError(ptr noundef %25, i32 noundef -101, ptr noundef @.str, ptr noundef @.str.41, ptr noundef @.str.31)
  store i32 -101, ptr %4, align 4
  store i32 1, ptr %14, align 4
  br label %82

26:                                               ; preds = %18
  %27 = load ptr, ptr %9, align 8, !tbaa !9
  %28 = getelementptr inbounds nuw %struct.IDAMemRec, ptr %27, i32 0, i32 204
  %29 = load ptr, ptr %28, align 8, !tbaa !67
  store ptr %29, ptr %8, align 8, !tbaa !68
  %30 = load i32, ptr %6, align 4, !tbaa !7
  %31 = load ptr, ptr %8, align 8, !tbaa !68
  %32 = getelementptr inbounds nuw %struct.IDAadjMemRec, ptr %31, i32 0, i32 6
  %33 = load i32, ptr %32, align 8, !tbaa !69
  %34 = icmp sge i32 %30, %33
  br i1 %34, label %35, label %37

35:                                               ; preds = %26
  %36 = load ptr, ptr %9, align 8, !tbaa !9
  call void (ptr, i32, ptr, ptr, ptr, ...) @IDAProcessError(ptr noundef %36, i32 noundef -3, ptr noundef @.str, ptr noundef @.str.41, ptr noundef @.str.32)
  store i32 -3, ptr %4, align 4
  store i32 1, ptr %14, align 4
  br label %82

37:                                               ; preds = %26
  %38 = load ptr, ptr %8, align 8, !tbaa !68
  %39 = getelementptr inbounds nuw %struct.IDAadjMemRec, ptr %38, i32 0, i32 5
  %40 = load ptr, ptr %39, align 8, !tbaa !74
  store ptr %40, ptr %10, align 8, !tbaa !75
  br label %41

41:                                               ; preds = %51, %37
  %42 = load ptr, ptr %10, align 8, !tbaa !75
  %43 = icmp ne ptr %42, null
  br i1 %43, label %44, label %55

44:                                               ; preds = %41
  %45 = load i32, ptr %6, align 4, !tbaa !7
  %46 = load ptr, ptr %10, align 8, !tbaa !75
  %47 = getelementptr inbounds nuw %struct.IDABMemRec, ptr %46, i32 0, i32 0
  %48 = load i32, ptr %47, align 8, !tbaa !76
  %49 = icmp eq i32 %45, %48
  br i1 %49, label %50, label %51

50:                                               ; preds = %44
  br label %55

51:                                               ; preds = %44
  %52 = load ptr, ptr %10, align 8, !tbaa !75
  %53 = getelementptr inbounds nuw %struct.IDABMemRec, ptr %52, i32 0, i32 17
  %54 = load ptr, ptr %53, align 8, !tbaa !78
  store ptr %54, ptr %10, align 8, !tbaa !75
  br label %41, !llvm.loop !106

55:                                               ; preds = %50, %41
  %56 = load ptr, ptr %10, align 8, !tbaa !75
  %57 = getelementptr inbounds nuw %struct.IDABMemRec, ptr %56, i32 0, i32 2
  %58 = load ptr, ptr %57, align 8, !tbaa !80
  store ptr %58, ptr %12, align 8, !tbaa !3
  %59 = load ptr, ptr %10, align 8, !tbaa !75
  %60 = getelementptr inbounds nuw %struct.IDABMemRec, ptr %59, i32 0, i32 10
  %61 = load ptr, ptr %60, align 8, !tbaa !86
  %62 = icmp eq ptr %61, null
  br i1 %62, label %63, label %65

63:                                               ; preds = %55
  %64 = load ptr, ptr %9, align 8, !tbaa !9
  call void (ptr, i32, ptr, ptr, ptr, ...) @IDAProcessError(ptr noundef %64, i32 noundef -102, ptr noundef @.str, ptr noundef @.str.41, ptr noundef @.str.38)
  store i32 -3, ptr %4, align 4
  store i32 1, ptr %14, align 4
  br label %82

65:                                               ; preds = %55
  %66 = load ptr, ptr %10, align 8, !tbaa !75
  %67 = getelementptr inbounds nuw %struct.IDABMemRec, ptr %66, i32 0, i32 10
  %68 = load ptr, ptr %67, align 8, !tbaa !86
  store ptr %68, ptr %11, align 8, !tbaa !87
  %69 = load ptr, ptr %7, align 8, !tbaa !3
  %70 = load ptr, ptr %11, align 8, !tbaa !87
  %71 = getelementptr inbounds nuw %struct.IDASpilsMemRecB, ptr %70, i32 0, i32 1
  store ptr %69, ptr %71, align 8, !tbaa !107
  %72 = load ptr, ptr %7, align 8, !tbaa !3
  %73 = icmp ne ptr %72, null
  br i1 %73, label %74, label %77

74:                                               ; preds = %65
  %75 = load ptr, ptr %12, align 8, !tbaa !3
  %76 = call i32 @IDASpilsSetJacTimesVecFn(ptr noundef %75, ptr noundef @IDAAspilsJacTimesVecBS)
  store i32 %76, ptr %13, align 4, !tbaa !7
  br label %80

77:                                               ; preds = %65
  %78 = load ptr, ptr %12, align 8, !tbaa !3
  %79 = call i32 @IDASpilsSetJacTimesVecFn(ptr noundef %78, ptr noundef null)
  store i32 %79, ptr %13, align 4, !tbaa !7
  br label %80

80:                                               ; preds = %77, %74
  %81 = load i32, ptr %13, align 4, !tbaa !7
  store i32 %81, ptr %4, align 4
  store i32 1, ptr %14, align 4
  br label %82

82:                                               ; preds = %80, %63, %35, %24, %17
  call void @llvm.lifetime.end.p0(i64 4, ptr %13) #5
  call void @llvm.lifetime.end.p0(i64 8, ptr %12) #5
  call void @llvm.lifetime.end.p0(i64 8, ptr %11) #5
  call void @llvm.lifetime.end.p0(i64 8, ptr %10) #5
  call void @llvm.lifetime.end.p0(i64 8, ptr %9) #5
  call void @llvm.lifetime.end.p0(i64 8, ptr %8) #5
  %83 = load i32, ptr %4, align 4
  ret i32 %83
}